; Function Attrs: nounwind uwtable
define internal noundef i64 @tar_write(ptr noundef captures(none) %0, ptr noundef %1, i64 noundef %2) #0 {
  %4 = load ptr, ptr %0, align 8
  %5 = getelementptr inbounds nuw i8, ptr %4, i64 24
  store ptr null, ptr %5, align 8
  %6 = load ptr, ptr %0, align 8
  %7 = getelementptr inbounds nuw i8, ptr %6, i64 32
  store i32 0, ptr %7, align 8
  %8 = load ptr, ptr %0, align 8
  %9 = getelementptr inbounds nuw i8, ptr %8, i64 8
  %10 = load i32, ptr %9, align 8
  switch i32 %10, label %63 [
    i32 0, label %11
    i32 1, label %24
  ]

11:                                               ; preds = %3
  %12 = tail call ptr @__errno_location() #14
  store i32 0, ptr %12, align 4
  %13 = getelementptr inbounds nuw i8, ptr %4, i64 48
  %14 = load i32, ptr %13, align 8
  %15 = tail call i64 @write(i32 noundef %14, ptr noundef %1, i64 noundef %2) #12
  %.not = icmp eq i64 %15, %2
  br i1 %.not, label %20, label %16

16:                                               ; preds = %11
  %17 = load i32, ptr %12, align 4
  %.not24 = icmp eq i32 %17, 0
  %spec.select = select i1 %.not24, i32 28, i32 %17
  %18 = load ptr, ptr %0, align 8
  %19 = getelementptr inbounds nuw i8, ptr %18, i64 32
  store i32 %spec.select, ptr %19, align 8
  br label %tar_write_compressed_data.exit

20:                                               ; preds = %11
  %21 = getelementptr inbounds nuw i8, ptr %0, i64 8
  %22 = load i64, ptr %21, align 8
  %23 = add i64 %22, %2
  store i64 %23, ptr %21, align 8
  br label %tar_write_compressed_data.exit

24:                                               ; preds = %3
  %25 = getelementptr inbounds nuw i8, ptr %4, i64 64
  %26 = load ptr, ptr %25, align 8
  store ptr %1, ptr %26, align 8
  %27 = trunc i64 %2 to i32
  %28 = load ptr, ptr %25, align 8
  %29 = getelementptr inbounds nuw i8, ptr %28, i64 8
  store i32 %27, ptr %29, align 8
  %30 = getelementptr inbounds nuw i8, ptr %4, i64 48
  %31 = getelementptr inbounds nuw i8, ptr %4, i64 72
  br label %.split.i

.split.i:                                         ; preds = %57, %24
  %32 = load ptr, ptr %25, align 8
  %33 = getelementptr inbounds nuw i8, ptr %32, i64 8
  %34 = load i32, ptr %33, align 8
  %.not41.i = icmp eq i32 %34, 0
  br i1 %.not41.i, label %59, label %35

35:                                               ; preds = %.split.i
  %36 = tail call i32 @deflate(ptr noundef nonnull %32, i32 noundef 0) #12
  %37 = icmp eq i32 %36, -2
  br i1 %37, label %.split38.us.i, label %38

.split38.us.i:                                    ; preds = %35
  store ptr @.str.15, ptr %5, align 8
  br label %tar_write_compressed_data.exit

38:                                               ; preds = %35
  %39 = load ptr, ptr %25, align 8
  %40 = getelementptr inbounds nuw i8, ptr %39, i64 32
  %41 = load i32, ptr %40, align 8
  %42 = icmp ult i32 %41, 4096
  br i1 %42, label %43, label %57

43:                                               ; preds = %38
  %44 = sub nuw nsw i32 4096, %41
  %45 = zext nneg i32 %44 to i64
  %46 = tail call ptr @__errno_location() #14
  store i32 0, ptr %46, align 4
  %47 = load i32, ptr %30, align 8
  %48 = load ptr, ptr %31, align 8
  %49 = tail call i64 @write(i32 noundef %47, ptr noundef %48, i64 noundef %45) #12
  %.not.i = icmp eq i64 %49, %45
  br i1 %.not.i, label %.thread.i, label %.split40.us.i

.thread.i:                                        ; preds = %43
  %50 = load ptr, ptr %31, align 8
  %51 = load ptr, ptr %25, align 8
  %52 = getelementptr inbounds nuw i8, ptr %51, i64 24
  store ptr %50, ptr %52, align 8
  %53 = load ptr, ptr %25, align 8
  %54 = getelementptr inbounds nuw i8, ptr %53, i64 32
  store i32 4096, ptr %54, align 8
  br label %57

.split40.us.i:                                    ; preds = %43
  %55 = load i32, ptr %46, align 4
  %.not31.i = icmp eq i32 %55, 0
  %spec.select.i = select i1 %.not31.i, i32 28, i32 %55
  %56 = getelementptr inbounds nuw i8, ptr %4, i64 32
  store i32 %spec.select.i, ptr %56, align 8
  br label %tar_write_compressed_data.exit

57:                                               ; preds = %.thread.i, %38
  %58 = icmp eq i32 %36, 1
  br i1 %58, label %59, label %.split.i

59:                                               ; preds = %57, %.split.i
  %60 = getelementptr inbounds nuw i8, ptr %0, i64 8
  %61 = load i64, ptr %60, align 8
  %62 = add i64 %61, %2
  store i64 %62, ptr %60, align 8
  br label %tar_write_compressed_data.exit

63:                                               ; preds = %3
  %64 = getelementptr inbounds nuw i8, ptr %8, i64 32
  store i32 38, ptr %64, align 8
  br label %tar_write_compressed_data.exit

tar_write_compressed_data.exit:                   ; preds = %.split40.us.i, %.split38.us.i, %63, %59, %20, %16
  %.0 = phi i64 [ -1, %16 ], [ %2, %20 ], [ %2, %59 ], [ -1, %63 ], [ -1, %.split38.us.i ], [ -1, %.split40.us.i ]
  ret i64 %.0
}